; ModuleID = '23/286.c'
source_filename = "23/286.c"
target datalayout = "e-m:e-p270:32:32-p271:32:32-p272:64:64-i64:64-f80:128-n8:16:32:64-S128"
target triple = "x86_64-pc-linux-gnu"

@.str = private unnamed_addr constant [3 x i8] c"%c\00", align 1
@.str.1 = private unnamed_addr constant [4 x i8] c"%c \00", align 1

; Function Attrs: noinline nounwind uwtable
define dso_local i32 @main() #0 {
  %1 = alloca i32, align 4
  %2 = alloca [100 x i8], align 16
  %3 = alloca i32, align 4
  %4 = alloca i32, align 4
  %5 = alloca i32, align 4
  %6 = alloca [100 x i32], align 16
  %7 = alloca [100 x i32], align 16
  %8 = alloca [100 x i32], align 16
  %9 = alloca i32, align 4
  store i32 0, i32* %1, align 4
  store i32 0, i32* %3, align 4
  store i32 1, i32* %4, align 4
  store i32 1, i32* %5, align 4
  %10 = getelementptr inbounds [100 x i8], [100 x i8]* %2, i64 0, i64 0
  %11 = call i32 (i8*, ...) bitcast (i32 (...)* @gets to i32 (i8*, ...)*)(i8* %10)
  %12 = getelementptr inbounds [100 x i32], [100 x i32]* %8, i64 0, i64 1
  store i32 1, i32* %12, align 4
  store i32 0, i32* %3, align 4
  br label %13

13:                                               ; preds = %46, %0
  %14 = load i32, i32* %3, align 4
  %15 = sext i32 %14 to i64
  %16 = getelementptr inbounds [100 x i8], [100 x i8]* %2, i64 0, i64 0
  %17 = call i64 @strlen(i8* %16) #3
  %18 = icmp ult i64 %15, %17
  br i1 %18, label %19, label %49

19:                                               ; preds = %13
  %20 = load i32, i32* %3, align 4
  %21 = sext i32 %20 to i64
  %22 = getelementptr inbounds [100 x i8], [100 x i8]* %2, i64 0, i64 %21
  %23 = load i8, i8* %22, align 1
  %24 = sext i8 %23 to i32
  %25 = icmp eq i32 %24, 32
  br i1 %25, label %26, label %45

26:                                               ; preds = %19
  %27 = load i32, i32* %3, align 4
  %28 = load i32, i32* %4, align 4
  %29 = sext i32 %28 to i64
  %30 = getelementptr inbounds [100 x i32], [100 x i32]* %6, i64 0, i64 %29
  store i32 %27, i32* %30, align 4
  %31 = load i32, i32* %3, align 4
  %32 = load i32, i32* %4, align 4
  %33 = sext i32 %32 to i64
  %34 = getelementptr inbounds [100 x i32], [100 x i32]* %7, i64 0, i64 %33
  store i32 %31, i32* %34, align 4
  %35 = load i32, i32* %3, align 4
  %36 = add nsw i32 %35, 2
  %37 = load i32, i32* %4, align 4
  %38 = add nsw i32 %37, 1
  %39 = sext i32 %38 to i64
  %40 = getelementptr inbounds [100 x i32], [100 x i32]* %8, i64 0, i64 %39
  store i32 %36, i32* %40, align 4
  %41 = load i32, i32* %4, align 4
  %42 = add nsw i32 %41, 1
  store i32 %42, i32* %4, align 4
  %43 = load i32, i32* %5, align 4
  %44 = add nsw i32 %43, 1
  store i32 %44, i32* %5, align 4
  br label %45

45:                                               ; preds = %26, %19
  br label %46

46:                                               ; preds = %45
  %47 = load i32, i32* %3, align 4
  %48 = add nsw i32 %47, 1
  store i32 %48, i32* %3, align 4
  br label %13

49:                                               ; preds = %13
  %50 = getelementptr inbounds [100 x i8], [100 x i8]* %2, i64 0, i64 0
  %51 = call i64 @strlen(i8* %50) #3
  %52 = trunc i64 %51 to i32
  %53 = load i32, i32* %5, align 4
  %54 = sext i32 %53 to i64
  %55 = getelementptr inbounds [100 x i32], [100 x i32]* %7, i64 0, i64 %54
  store i32 %52, i32* %55, align 4
  %56 = load i32, i32* %5, align 4
  store i32 %56, i32* %4, align 4
  br label %57

57:                                               ; preds = %101, %49
  %58 = load i32, i32* %4, align 4
  %59 = icmp sgt i32 %58, 1
  br i1 %59, label %60, label %104

60:                                               ; preds = %57
  %61 = load i32, i32* %4, align 4
  %62 = sext i32 %61 to i64
  %63 = getelementptr inbounds [100 x i32], [100 x i32]* %8, i64 0, i64 %62
  %64 = load i32, i32* %63, align 4
  %65 = sub nsw i32 %64, 1
  store i32 %65, i32* %9, align 4
  br label %66

66:                                               ; preds = %97, %60
  %67 = load i32, i32* %9, align 4
  %68 = load i32, i32* %4, align 4
  %69 = sext i32 %68 to i64
  %70 = getelementptr inbounds [100 x i32], [100 x i32]* %7, i64 0, i64 %69
  %71 = load i32, i32* %70, align 4
  %72 = sub nsw i32 %71, 1
  %73 = icmp sle i32 %67, %72
  br i1 %73, label %74, label %100

74:                                               ; preds = %66
  %75 = load i32, i32* %9, align 4
  %76 = load i32, i32* %4, align 4
  %77 = sext i32 %76 to i64
  %78 = getelementptr inbounds [100 x i32], [100 x i32]* %7, i64 0, i64 %77
  %79 = load i32, i32* %78, align 4
  %80 = sub nsw i32 %79, 1
  %81 = icmp ne i32 %75, %80
  br i1 %81, label %82, label %89

82:                                               ; preds = %74
  %83 = load i32, i32* %9, align 4
  %84 = sext i32 %83 to i64
  %85 = getelementptr inbounds [100 x i8], [100 x i8]* %2, i64 0, i64 %84
  %86 = load i8, i8* %85, align 1
  %87 = sext i8 %86 to i32
  %88 = call i32 (i8*, ...) @printf(i8* getelementptr inbounds ([3 x i8], [3 x i8]* @.str, i64 0, i64 0), i32 %87)
  br label %96

89:                                               ; preds = %74
  %90 = load i32, i32* %9, align 4
  %91 = sext i32 %90 to i64
  %92 = getelementptr inbounds [100 x i8], [100 x i8]* %2, i64 0, i64 %91
  %93 = load i8, i8* %92, align 1
  %94 = sext i8 %93 to i32
  %95 = call i32 (i8*, ...) @printf(i8* getelementptr inbounds ([4 x i8], [4 x i8]* @.str.1, i64 0, i64 0), i32 %94)
  br label %96

96:                                               ; preds = %89, %82
  br label %97

97:                                               ; preds = %96
  %98 = load i32, i32* %9, align 4
  %99 = add nsw i32 %98, 1
  store i32 %99, i32* %9, align 4
  br label %66

100:                                              ; preds = %66
  br label %101

101:                                              ; preds = %100
  %102 = load i32, i32* %4, align 4
  %103 = add nsw i32 %102, -1
  store i32 %103, i32* %4, align 4
  br label %57

104:                                              ; preds = %57
  store i32 1, i32* %4, align 4
  br i1 true, label %105, label %122

105:                                              ; preds = %104
  store i32 0, i32* %9, align 4
  br label %106

106:                                              ; preds = %118, %105
  %107 = load i32, i32* %9, align 4
  %108 = getelementptr inbounds [100 x i32], [100 x i32]* %7, i64 0, i64 1
  %109 = load i32, i32* %108, align 4
  %110 = icmp slt i32 %107, %109
  br i1 %110, label %111, label %121

111:                                              ; preds = %106
  %112 = load i32, i32* %9, align 4
  %113 = sext i32 %112 to i64
  %114 = getelementptr inbounds [100 x i8], [100 x i8]* %2, i64 0, i64 %113
  %115 = load i8, i8* %114, align 1
  %116 = sext i8 %115 to i32
  %117 = call i32 (i8*, ...) @printf(i8* getelementptr inbounds ([3 x i8], [3 x i8]* @.str, i64 0, i64 0), i32 %116)
  br label %118

118:                                              ; preds = %111
  %119 = load i32, i32* %9, align 4
  %120 = add nsw i32 %119, 1
  store i32 %120, i32* %9, align 4
  br label %106

121:                                              ; preds = %106
  br label %122

122:                                              ; preds = %121, %104
  ret i32 0
}

declare dso_local i32 @gets(...) #1

; Function Attrs: nounwind readonly
declare dso_local i64 @strlen(i8*) #2

declare dso_local i32 @printf(i8*, ...) #1


!llvm.module.flags = !{!0}
!llvm.ident = !{!1}

!0 = !{i32 1, !"wchar_size", i32 4}
!1 = !{!"clang version 10.0.0-4ubuntu1 "}
